target datalayout = "e-m:e-p270:32:32-p271:32:32-p272:64:64-i64:64-i128:128-f80:128-n8:16:32:64-S128"
target triple = "x86_64-pc-linux-gnu"

%struct.ucontext_t = type { i64, ptr, %struct.stack_t, %struct.mcontext_t, %struct.__sigset_t, %struct._libc_fpstate, [4 x i64] }
%struct.stack_t = type { ptr, i32, i64 }
%struct.mcontext_t = type { [23 x i64], ptr, [8 x i64] }
%struct.__sigset_t = type { [16 x i64] }
%struct._libc_fpstate = type { i16, i16, i16, i16, i64, i64, i32, i32, [8 x %struct._libc_fpxreg], [16 x %struct._libc_xmmreg], [24 x i32] }
%struct._libc_fpxreg = type { [4 x i16], i16, [3 x i16] }
%struct._libc_xmmreg = type { [4 x i32] }

@.str.8 = private unnamed_addr constant [11 x i8] c"Registers:\00", align 1
@.str.9 = private unnamed_addr constant [13 x i8] c"RAX=0x%016lx\00", align 1
@.str.10 = private unnamed_addr constant [15 x i8] c", RBX=0x%016lx\00", align 1
@.str.11 = private unnamed_addr constant [15 x i8] c", RCX=0x%016lx\00", align 1
@.str.12 = private unnamed_addr constant [15 x i8] c", RDX=0x%016lx\00", align 1
@.str.13 = private unnamed_addr constant [13 x i8] c"RSP=0x%016lx\00", align 1
@.str.14 = private unnamed_addr constant [15 x i8] c", RBP=0x%016lx\00", align 1
@.str.15 = private unnamed_addr constant [15 x i8] c", RSI=0x%016lx\00", align 1
@.str.16 = private unnamed_addr constant [15 x i8] c", RDI=0x%016lx\00", align 1
@.str.17 = private unnamed_addr constant [13 x i8] c"R8 =0x%016lx\00", align 1
@.str.18 = private unnamed_addr constant [15 x i8] c", R9 =0x%016lx\00", align 1
@.str.19 = private unnamed_addr constant [15 x i8] c", R10=0x%016lx\00", align 1
@.str.20 = private unnamed_addr constant [15 x i8] c", R11=0x%016lx\00", align 1
@.str.21 = private unnamed_addr constant [13 x i8] c"R12=0x%016lx\00", align 1
@.str.22 = private unnamed_addr constant [15 x i8] c", R13=0x%016lx\00", align 1
@.str.23 = private unnamed_addr constant [15 x i8] c", R14=0x%016lx\00", align 1
@.str.24 = private unnamed_addr constant [15 x i8] c", R15=0x%016lx\00", align 1
@.str.25 = private unnamed_addr constant [13 x i8] c"RIP=0x%016lx\00", align 1
@.str.26 = private unnamed_addr constant [18 x i8] c", EFLAGS=0x%016lx\00", align 1
@.str.27 = private unnamed_addr constant [18 x i8] c", CSGSFS=0x%016lx\00", align 1
@.str.28 = private unnamed_addr constant [15 x i8] c", ERR=0x%016lx\00", align 1
@.str.29 = private unnamed_addr constant [18 x i8] c"  TRAPNO=0x%016lx\00", align 1

; Function Attrs: mustprogress nounwind uwtable
define hidden void @_ZN2os13print_contextEP12outputStreamPKv(ptr noundef %0, ptr noundef %1) #1 align 2 {
  %3 = alloca ptr, align 8
  %4 = alloca ptr, align 8
  %5 = alloca ptr, align 8
  store ptr %0, ptr %3, align 8
  store ptr %1, ptr %4, align 8
  %6 = load ptr, ptr %4, align 8
  %7 = icmp eq ptr %6, null
  br i1 %7, label %8, label %9

8:                                                ; preds = %2
  br label %145

9:                                                ; preds = %2
  %10 = load ptr, ptr %4, align 8
  store ptr %10, ptr %5, align 8
  %11 = load ptr, ptr %3, align 8
  call void (ptr, ptr, ...) @_ZN12outputStream8print_crEPKcz(ptr noundef nonnull align 8 dereferenceable(56) %11, ptr noundef @.str.8)
  %12 = load ptr, ptr %3, align 8
  %13 = load ptr, ptr %5, align 8
  %14 = getelementptr inbounds %struct.ucontext_t, ptr %13, i32 0, i32 3
  %15 = getelementptr inbounds %struct.mcontext_t, ptr %14, i32 0, i32 0
  %16 = getelementptr inbounds [23 x i64], ptr %15, i64 0, i64 13
  %17 = load i64, ptr %16, align 8
  call void (ptr, ptr, ...) @_ZN12outputStream5printEPKcz(ptr noundef nonnull align 8 dereferenceable(56) %12, ptr noundef @.str.9, i64 noundef %17)
  %18 = load ptr, ptr %3, align 8
  %19 = load ptr, ptr %5, align 8
  %20 = getelementptr inbounds %struct.ucontext_t, ptr %19, i32 0, i32 3
  %21 = getelementptr inbounds %struct.mcontext_t, ptr %20, i32 0, i32 0
  %22 = getelementptr inbounds [23 x i64], ptr %21, i64 0, i64 11
  %23 = load i64, ptr %22, align 8
  call void (ptr, ptr, ...) @_ZN12outputStream5printEPKcz(ptr noundef nonnull align 8 dereferenceable(56) %18, ptr noundef @.str.10, i64 noundef %23)
  %24 = load ptr, ptr %3, align 8
  %25 = load ptr, ptr %5, align 8
  %26 = getelementptr inbounds %struct.ucontext_t, ptr %25, i32 0, i32 3
  %27 = getelementptr inbounds %struct.mcontext_t, ptr %26, i32 0, i32 0
  %28 = getelementptr inbounds [23 x i64], ptr %27, i64 0, i64 14
  %29 = load i64, ptr %28, align 8
  call void (ptr, ptr, ...) @_ZN12outputStream5printEPKcz(ptr noundef nonnull align 8 dereferenceable(56) %24, ptr noundef @.str.11, i64 noundef %29)
  %30 = load ptr, ptr %3, align 8
  %31 = load ptr, ptr %5, align 8
  %32 = getelementptr inbounds %struct.ucontext_t, ptr %31, i32 0, i32 3
  %33 = getelementptr inbounds %struct.mcontext_t, ptr %32, i32 0, i32 0
  %34 = getelementptr inbounds [23 x i64], ptr %33, i64 0, i64 12
  %35 = load i64, ptr %34, align 8
  call void (ptr, ptr, ...) @_ZN12outputStream5printEPKcz(ptr noundef nonnull align 8 dereferenceable(56) %30, ptr noundef @.str.12, i64 noundef %35)
  %36 = load ptr, ptr %3, align 8
  call void @_ZN12outputStream2crEv(ptr noundef nonnull align 8 dereferenceable(56) %36)
  %37 = load ptr, ptr %3, align 8
  %38 = load ptr, ptr %5, align 8
  %39 = getelementptr inbounds %struct.ucontext_t, ptr %38, i32 0, i32 3
  %40 = getelementptr inbounds %struct.mcontext_t, ptr %39, i32 0, i32 0
  %41 = getelementptr inbounds [23 x i64], ptr %40, i64 0, i64 15
  %42 = load i64, ptr %41, align 8
  call void (ptr, ptr, ...) @_ZN12outputStream5printEPKcz(ptr noundef nonnull align 8 dereferenceable(56) %37, ptr noundef @.str.13, i64 noundef %42)
  %43 = load ptr, ptr %3, align 8
  %44 = load ptr, ptr %5, align 8
  %45 = getelementptr inbounds %struct.ucontext_t, ptr %44, i32 0, i32 3
  %46 = getelementptr inbounds %struct.mcontext_t, ptr %45, i32 0, i32 0
  %47 = getelementptr inbounds [23 x i64], ptr %46, i64 0, i64 10
  %48 = load i64, ptr %47, align 8
  call void (ptr, ptr, ...) @_ZN12outputStream5printEPKcz(ptr noundef nonnull align 8 dereferenceable(56) %43, ptr noundef @.str.14, i64 noundef %48)
  %49 = load ptr, ptr %3, align 8
  %50 = load ptr, ptr %5, align 8
  %51 = getelementptr inbounds %struct.ucontext_t, ptr %50, i32 0, i32 3
  %52 = getelementptr inbounds %struct.mcontext_t, ptr %51, i32 0, i32 0
  %53 = getelementptr inbounds [23 x i64], ptr %52, i64 0, i64 9
  %54 = load i64, ptr %53, align 8
  call void (ptr, ptr, ...) @_ZN12outputStream5printEPKcz(ptr noundef nonnull align 8 dereferenceable(56) %49, ptr noundef @.str.15, i64 noundef %54)
  %55 = load ptr, ptr %3, align 8
  %56 = load ptr, ptr %5, align 8
  %57 = getelementptr inbounds %struct.ucontext_t, ptr %56, i32 0, i32 3
  %58 = getelementptr inbounds %struct.mcontext_t, ptr %57, i32 0, i32 0
  %59 = getelementptr inbounds [23 x i64], ptr %58, i64 0, i64 8
  %60 = load i64, ptr %59, align 8
  call void (ptr, ptr, ...) @_ZN12outputStream5printEPKcz(ptr noundef nonnull align 8 dereferenceable(56) %55, ptr noundef @.str.16, i64 noundef %60)
  %61 = load ptr, ptr %3, align 8
  call void @_ZN12outputStream2crEv(ptr noundef nonnull align 8 dereferenceable(56) %61)
  %62 = load ptr, ptr %3, align 8
  %63 = load ptr, ptr %5, align 8
  %64 = getelementptr inbounds %struct.ucontext_t, ptr %63, i32 0, i32 3
  %65 = getelementptr inbounds %struct.mcontext_t, ptr %64, i32 0, i32 0
  %66 = getelementptr inbounds [23 x i64], ptr %65, i64 0, i64 0
  %67 = load i64, ptr %66, align 8
  call void (ptr, ptr, ...) @_ZN12outputStream5printEPKcz(ptr noundef nonnull align 8 dereferenceable(56) %62, ptr noundef @.str.17, i64 noundef %67)
  %68 = load ptr, ptr %3, align 8
  %69 = load ptr, ptr %5, align 8
  %70 = getelementptr inbounds %struct.ucontext_t, ptr %69, i32 0, i32 3
  %71 = getelementptr inbounds %struct.mcontext_t, ptr %70, i32 0, i32 0
  %72 = getelementptr inbounds [23 x i64], ptr %71, i64 0, i64 1
  %73 = load i64, ptr %72, align 8
  call void (ptr, ptr, ...) @_ZN12outputStream5printEPKcz(ptr noundef nonnull align 8 dereferenceable(56) %68, ptr noundef @.str.18, i64 noundef %73)
  %74 = load ptr, ptr %3, align 8
  %75 = load ptr, ptr %5, align 8
  %76 = getelementptr inbounds %struct.ucontext_t, ptr %75, i32 0, i32 3
  %77 = getelementptr inbounds %struct.mcontext_t, ptr %76, i32 0, i32 0
  %78 = getelementptr inbounds [23 x i64], ptr %77, i64 0, i64 2
  %79 = load i64, ptr %78, align 8
  call void (ptr, ptr, ...) @_ZN12outputStream5printEPKcz(ptr noundef nonnull align 8 dereferenceable(56) %74, ptr noundef @.str.19, i64 noundef %79)
  %80 = load ptr, ptr %3, align 8
  %81 = load ptr, ptr %5, align 8
  %82 = getelementptr inbounds %struct.ucontext_t, ptr %81, i32 0, i32 3
  %83 = getelementptr inbounds %struct.mcontext_t, ptr %82, i32 0, i32 0
  %84 = getelementptr inbounds [23 x i64], ptr %83, i64 0, i64 3
  %85 = load i64, ptr %84, align 8
  call void (ptr, ptr, ...) @_ZN12outputStream5printEPKcz(ptr noundef nonnull align 8 dereferenceable(56) %80, ptr noundef @.str.20, i64 noundef %85)
  %86 = load ptr, ptr %3, align 8
  call void @_ZN12outputStream2crEv(ptr noundef nonnull align 8 dereferenceable(56) %86)
  %87 = load ptr, ptr %3, align 8
  %88 = load ptr, ptr %5, align 8
  %89 = getelementptr inbounds %struct.ucontext_t, ptr %88, i32 0, i32 3
  %90 = getelementptr inbounds %struct.mcontext_t, ptr %89, i32 0, i32 0
  %91 = getelementptr inbounds [23 x i64], ptr %90, i64 0, i64 4
  %92 = load i64, ptr %91, align 8
  call void (ptr, ptr, ...) @_ZN12outputStream5printEPKcz(ptr noundef nonnull align 8 dereferenceable(56) %87, ptr noundef @.str.21, i64 noundef %92)
  %93 = load ptr, ptr %3, align 8
  %94 = load ptr, ptr %5, align 8
  %95 = getelementptr inbounds %struct.ucontext_t, ptr %94, i32 0, i32 3
  %96 = getelementptr inbounds %struct.mcontext_t, ptr %95, i32 0, i32 0
  %97 = getelementptr inbounds [23 x i64], ptr %96, i64 0, i64 5
  %98 = load i64, ptr %97, align 8
  call void (ptr, ptr, ...) @_ZN12outputStream5printEPKcz(ptr noundef nonnull align 8 dereferenceable(56) %93, ptr noundef @.str.22, i64 noundef %98)
  %99 = load ptr, ptr %3, align 8
  %100 = load ptr, ptr %5, align 8
  %101 = getelementptr inbounds %struct.ucontext_t, ptr %100, i32 0, i32 3
  %102 = getelementptr inbounds %struct.mcontext_t, ptr %101, i32 0, i32 0
  %103 = getelementptr inbounds [23 x i64], ptr %102, i64 0, i64 6
  %104 = load i64, ptr %103, align 8
  call void (ptr, ptr, ...) @_ZN12outputStream5printEPKcz(ptr noundef nonnull align 8 dereferenceable(56) %99, ptr noundef @.str.23, i64 noundef %104)
  %105 = load ptr, ptr %3, align 8
  %106 = load ptr, ptr %5, align 8
  %107 = getelementptr inbounds %struct.ucontext_t, ptr %106, i32 0, i32 3
  %108 = getelementptr inbounds %struct.mcontext_t, ptr %107, i32 0, i32 0
  %109 = getelementptr inbounds [23 x i64], ptr %108, i64 0, i64 7
  %110 = load i64, ptr %109, align 8
  call void (ptr, ptr, ...) @_ZN12outputStream5printEPKcz(ptr noundef nonnull align 8 dereferenceable(56) %105, ptr noundef @.str.24, i64 noundef %110)
  %111 = load ptr, ptr %3, align 8
  call void @_ZN12outputStream2crEv(ptr noundef nonnull align 8 dereferenceable(56) %111)
  %112 = load ptr, ptr %3, align 8
  %113 = load ptr, ptr %5, align 8
  %114 = getelementptr inbounds %struct.ucontext_t, ptr %113, i32 0, i32 3
  %115 = getelementptr inbounds %struct.mcontext_t, ptr %114, i32 0, i32 0
  %116 = getelementptr inbounds [23 x i64], ptr %115, i64 0, i64 16
  %117 = load i64, ptr %116, align 8
  call void (ptr, ptr, ...) @_ZN12outputStream5printEPKcz(ptr noundef nonnull align 8 dereferenceable(56) %112, ptr noundef @.str.25, i64 noundef %117)
  %118 = load ptr, ptr %3, align 8
  %119 = load ptr, ptr %5, align 8
  %120 = getelementptr inbounds %struct.ucontext_t, ptr %119, i32 0, i32 3
  %121 = getelementptr inbounds %struct.mcontext_t, ptr %120, i32 0, i32 0
  %122 = getelementptr inbounds [23 x i64], ptr %121, i64 0, i64 17
  %123 = load i64, ptr %122, align 8
  call void (ptr, ptr, ...) @_ZN12outputStream5printEPKcz(ptr noundef nonnull align 8 dereferenceable(56) %118, ptr noundef @.str.26, i64 noundef %123)
  %124 = load ptr, ptr %3, align 8
  %125 = load ptr, ptr %5, align 8
  %126 = getelementptr inbounds %struct.ucontext_t, ptr %125, i32 0, i32 3
  %127 = getelementptr inbounds %struct.mcontext_t, ptr %126, i32 0, i32 0
  %128 = getelementptr inbounds [23 x i64], ptr %127, i64 0, i64 18
  %129 = load i64, ptr %128, align 8
  call void (ptr, ptr, ...) @_ZN12outputStream5printEPKcz(ptr noundef nonnull align 8 dereferenceable(56) %124, ptr noundef @.str.27, i64 noundef %129)
  %130 = load ptr, ptr %3, align 8
  %131 = load ptr, ptr %5, align 8
  %132 = getelementptr inbounds %struct.ucontext_t, ptr %131, i32 0, i32 3
  %133 = getelementptr inbounds %struct.mcontext_t, ptr %132, i32 0, i32 0
  %134 = getelementptr inbounds [23 x i64], ptr %133, i64 0, i64 19
  %135 = load i64, ptr %134, align 8
  call void (ptr, ptr, ...) @_ZN12outputStream5printEPKcz(ptr noundef nonnull align 8 dereferenceable(56) %130, ptr noundef @.str.28, i64 noundef %135)
  %136 = load ptr, ptr %3, align 8
  call void @_ZN12outputStream2crEv(ptr noundef nonnull align 8 dereferenceable(56) %136)
  %137 = load ptr, ptr %3, align 8
  %138 = load ptr, ptr %5, align 8
  %139 = getelementptr inbounds %struct.ucontext_t, ptr %138, i32 0, i32 3
  %140 = getelementptr inbounds %struct.mcontext_t, ptr %139, i32 0, i32 0
  %141 = getelementptr inbounds [23 x i64], ptr %140, i64 0, i64 20
  %142 = load i64, ptr %141, align 8
  call void (ptr, ptr, ...) @_ZN12outputStream5printEPKcz(ptr noundef nonnull align 8 dereferenceable(56) %137, ptr noundef @.str.29, i64 noundef %142)
  %143 = load ptr, ptr %3, align 8
  call void @_ZN12outputStream2crEv(ptr noundef nonnull align 8 dereferenceable(56) %143)
  %144 = load ptr, ptr %3, align 8
  call void @_ZN12outputStream2crEv(ptr noundef nonnull align 8 dereferenceable(56) %144)
  br label %145

145:                                              ; preds = %9, %8
  ret void
}