; Function Attrs: mustprogress nounwind uwtable
define hidden void @_ZN2os13print_contextEP12outputStreamPKv(ptr noundef %0, ptr noundef readonly %1) local_unnamed_addr #5 align 2 {
  %3 = icmp eq ptr %1, null
  br i1 %3, label %47, label %4

4:                                                ; preds = %2
  tail call void (ptr, ptr, ...) @_ZN12outputStream8print_crEPKcz(ptr noundef nonnull align 8 dereferenceable(56) %0, ptr noundef nonnull @.str.8) #12
  %5 = getelementptr inbounds i8, ptr %1, i64 40
  %6 = getelementptr inbounds i8, ptr %1, i64 144
  %7 = load i64, ptr %6, align 8
  tail call void (ptr, ptr, ...) @_ZN12outputStream5printEPKcz(ptr noundef nonnull align 8 dereferenceable(56) %0, ptr noundef nonnull @.str.9, i64 noundef %7) #12
  %8 = getelementptr inbounds i8, ptr %1, i64 128
  %9 = load i64, ptr %8, align 8
  tail call void (ptr, ptr, ...) @_ZN12outputStream5printEPKcz(ptr noundef nonnull align 8 dereferenceable(56) %0, ptr noundef nonnull @.str.10, i64 noundef %9) #12
  %10 = getelementptr inbounds i8, ptr %1, i64 152
  %11 = load i64, ptr %10, align 8
  tail call void (ptr, ptr, ...) @_ZN12outputStream5printEPKcz(ptr noundef nonnull align 8 dereferenceable(56) %0, ptr noundef nonnull @.str.11, i64 noundef %11) #12
  %12 = getelementptr inbounds i8, ptr %1, i64 136
  %13 = load i64, ptr %12, align 8
  tail call void (ptr, ptr, ...) @_ZN12outputStream5printEPKcz(ptr noundef nonnull align 8 dereferenceable(56) %0, ptr noundef nonnull @.str.12, i64 noundef %13) #12
  tail call void @_ZN12outputStream2crEv(ptr noundef nonnull align 8 dereferenceable(56) %0) #12
  %14 = getelementptr inbounds i8, ptr %1, i64 160
  %15 = load i64, ptr %14, align 8
  tail call void (ptr, ptr, ...) @_ZN12outputStream5printEPKcz(ptr noundef nonnull align 8 dereferenceable(56) %0, ptr noundef nonnull @.str.13, i64 noundef %15) #12
  %16 = getelementptr inbounds i8, ptr %1, i64 120
  %17 = load i64, ptr %16, align 8
  tail call void (ptr, ptr, ...) @_ZN12outputStream5printEPKcz(ptr noundef nonnull align 8 dereferenceable(56) %0, ptr noundef nonnull @.str.14, i64 noundef %17) #12
  %18 = getelementptr inbounds i8, ptr %1, i64 112
  %19 = load i64, ptr %18, align 8
  tail call void (ptr, ptr, ...) @_ZN12outputStream5printEPKcz(ptr noundef nonnull align 8 dereferenceable(56) %0, ptr noundef nonnull @.str.15, i64 noundef %19) #12
  %20 = getelementptr inbounds i8, ptr %1, i64 104
  %21 = load i64, ptr %20, align 8
  tail call void (ptr, ptr, ...) @_ZN12outputStream5printEPKcz(ptr noundef nonnull align 8 dereferenceable(56) %0, ptr noundef nonnull @.str.16, i64 noundef %21) #12
  tail call void @_ZN12outputStream2crEv(ptr noundef nonnull align 8 dereferenceable(56) %0) #12
  %22 = load i64, ptr %5, align 8
  tail call void (ptr, ptr, ...) @_ZN12outputStream5printEPKcz(ptr noundef nonnull align 8 dereferenceable(56) %0, ptr noundef nonnull @.str.17, i64 noundef %22) #12
  %23 = getelementptr inbounds i8, ptr %1, i64 48
  %24 = load i64, ptr %23, align 8
  tail call void (ptr, ptr, ...) @_ZN12outputStream5printEPKcz(ptr noundef nonnull align 8 dereferenceable(56) %0, ptr noundef nonnull @.str.18, i64 noundef %24) #12
  %25 = getelementptr inbounds i8, ptr %1, i64 56
  %26 = load i64, ptr %25, align 8
  tail call void (ptr, ptr, ...) @_ZN12outputStream5printEPKcz(ptr noundef nonnull align 8 dereferenceable(56) %0, ptr noundef nonnull @.str.19, i64 noundef %26) #12
  %27 = getelementptr inbounds i8, ptr %1, i64 64
  %28 = load i64, ptr %27, align 8
  tail call void (ptr, ptr, ...) @_ZN12outputStream5printEPKcz(ptr noundef nonnull align 8 dereferenceable(56) %0, ptr noundef nonnull @.str.20, i64 noundef %28) #12
  tail call void @_ZN12outputStream2crEv(ptr noundef nonnull align 8 dereferenceable(56) %0) #12
  %29 = getelementptr inbounds i8, ptr %1, i64 72
  %30 = load i64, ptr %29, align 8
  tail call void (ptr, ptr, ...) @_ZN12outputStream5printEPKcz(ptr noundef nonnull align 8 dereferenceable(56) %0, ptr noundef nonnull @.str.21, i64 noundef %30) #12
  %31 = getelementptr inbounds i8, ptr %1, i64 80
  %32 = load i64, ptr %31, align 8
  tail call void (ptr, ptr, ...) @_ZN12outputStream5printEPKcz(ptr noundef nonnull align 8 dereferenceable(56) %0, ptr noundef nonnull @.str.22, i64 noundef %32) #12
  %33 = getelementptr inbounds i8, ptr %1, i64 88
  %34 = load i64, ptr %33, align 8
  tail call void (ptr, ptr, ...) @_ZN12outputStream5printEPKcz(ptr noundef nonnull align 8 dereferenceable(56) %0, ptr noundef nonnull @.str.23, i64 noundef %34) #12
  %35 = getelementptr inbounds i8, ptr %1, i64 96
  %36 = load i64, ptr %35, align 8
  tail call void (ptr, ptr, ...) @_ZN12outputStream5printEPKcz(ptr noundef nonnull align 8 dereferenceable(56) %0, ptr noundef nonnull @.str.24, i64 noundef %36) #12
  tail call void @_ZN12outputStream2crEv(ptr noundef nonnull align 8 dereferenceable(56) %0) #12
  %37 = getelementptr inbounds i8, ptr %1, i64 168
  %38 = load i64, ptr %37, align 8
  tail call void (ptr, ptr, ...) @_ZN12outputStream5printEPKcz(ptr noundef nonnull align 8 dereferenceable(56) %0, ptr noundef nonnull @.str.25, i64 noundef %38) #12
  %39 = getelementptr inbounds i8, ptr %1, i64 176
  %40 = load i64, ptr %39, align 8
  tail call void (ptr, ptr, ...) @_ZN12outputStream5printEPKcz(ptr noundef nonnull align 8 dereferenceable(56) %0, ptr noundef nonnull @.str.26, i64 noundef %40) #12
  %41 = getelementptr inbounds i8, ptr %1, i64 184
  %42 = load i64, ptr %41, align 8
  tail call void (ptr, ptr, ...) @_ZN12outputStream5printEPKcz(ptr noundef nonnull align 8 dereferenceable(56) %0, ptr noundef nonnull @.str.27, i64 noundef %42) #12
  %43 = getelementptr inbounds i8, ptr %1, i64 192
  %44 = load i64, ptr %43, align 8
  tail call void (ptr, ptr, ...) @_ZN12outputStream5printEPKcz(ptr noundef nonnull align 8 dereferenceable(56) %0, ptr noundef nonnull @.str.28, i64 noundef %44) #12
  tail call void @_ZN12outputStream2crEv(ptr noundef nonnull align 8 dereferenceable(56) %0) #12
  %45 = getelementptr inbounds i8, ptr %1, i64 200
  %46 = load i64, ptr %45, align 8
  tail call void (ptr, ptr, ...) @_ZN12outputStream5printEPKcz(ptr noundef nonnull align 8 dereferenceable(56) %0, ptr noundef nonnull @.str.29, i64 noundef %46) #12
  tail call void @_ZN12outputStream2crEv(ptr noundef nonnull align 8 dereferenceable(56) %0) #12
  tail call void @_ZN12outputStream2crEv(ptr noundef nonnull align 8 dereferenceable(56) %0) #12
  br label %47

47:                                               ; preds = %2, %4
  ret void
}